target datalayout = "e-m:e-p270:32:32-p271:32:32-p272:64:64-i64:64-i128:128-f80:128-n8:16:32:64-S128"
target triple = "x86_64-pc-linux-gnu"

%struct.OpusRangeCoder = type { %struct.GetBitContext, %struct.RawBitsContext, i32, i32, i32, [1287 x i8], ptr, i32, i32, i32 }
%struct.GetBitContext = type { ptr, ptr, i32, i32, i32 }
%struct.RawBitsContext = type { ptr, i32, i32, i32 }

@.str = private unnamed_addr constant [30 x i8] c"Assertion %s failed at %s:%d\0A\00", align 1
@.str.1 = private unnamed_addr constant [30 x i8] c"rc->rng_cur < rc->rb.position\00", align 1
@.str.2 = private unnamed_addr constant [21 x i8] c"libavcodec/opus/rc.c\00", align 1

; Function Attrs: alwaysinline nounwind willreturn memory(none) uwtable
define internal i32 @av_bswap32(i32 noundef %0) #3 {
  %2 = alloca i32, align 4
  store i32 %0, ptr %2, align 4, !tbaa !13
  %3 = load i32, ptr %2, align 4, !tbaa !13
  %4 = shl i32 %3, 8
  %5 = and i32 %4, 65280
  %6 = load i32, ptr %2, align 4, !tbaa !13
  %7 = lshr i32 %6, 8
  %8 = and i32 %7, 255
  %9 = or i32 %5, %8
  %10 = shl i32 %9, 16
  %11 = load i32, ptr %2, align 4, !tbaa !13
  %12 = lshr i32 %11, 16
  %13 = shl i32 %12, 8
  %14 = and i32 %13, 65280
  %15 = load i32, ptr %2, align 4, !tbaa !13
  %16 = lshr i32 %15, 16
  %17 = lshr i32 %16, 8
  %18 = and i32 %17, 255
  %19 = or i32 %14, %18
  %20 = or i32 %10, %19
  ret i32 %20
}

; Function Attrs: alwaysinline nounwind willreturn memory(none) uwtable
define internal i32 @av_zero_extend_c(i32 noundef %0, i32 noundef %1) #3 {
  %3 = alloca i32, align 4
  %4 = alloca i32, align 4
  store i32 %0, ptr %3, align 4, !tbaa !13
  store i32 %1, ptr %4, align 4, !tbaa !13
  %5 = load i32, ptr %3, align 4, !tbaa !13
  %6 = load i32, ptr %4, align 4, !tbaa !13
  %7 = shl i32 1, %6
  %8 = sub i32 %7, 1
  %9 = and i32 %5, %8
  ret i32 %9
}

; Function Attrs: nounwind uwtable
define void @ff_opus_rc_put_raw(ptr noundef %0, i32 noundef %1, i32 noundef %2) #0 {
  %4 = alloca ptr, align 8
  %5 = alloca i32, align 4
  %6 = alloca i32, align 4
  %7 = alloca i32, align 4
  store ptr %0, ptr %4, align 8, !tbaa !4
  store i32 %1, ptr %5, align 4, !tbaa !13
  store i32 %2, ptr %6, align 4, !tbaa !13
  call void @llvm.lifetime.start.p0(i64 4, ptr %7) #9
  %8 = load ptr, ptr %4, align 8, !tbaa !4
  %9 = getelementptr inbounds nuw %struct.OpusRangeCoder, ptr %8, i32 0, i32 1
  %10 = getelementptr inbounds nuw %struct.RawBitsContext, ptr %9, i32 0, i32 2
  %11 = load i32, ptr %10, align 4, !tbaa !26
  %12 = sub i32 32, %11
  %13 = load i32, ptr %6, align 4, !tbaa !13
  %14 = icmp ugt i32 %12, %13
  br i1 %14, label %15, label %17

15:                                               ; preds = %3
  %16 = load i32, ptr %6, align 4, !tbaa !13
  br label %23

17:                                               ; preds = %3
  %18 = load ptr, ptr %4, align 8, !tbaa !4
  %19 = getelementptr inbounds nuw %struct.OpusRangeCoder, ptr %18, i32 0, i32 1
  %20 = getelementptr inbounds nuw %struct.RawBitsContext, ptr %19, i32 0, i32 2
  %21 = load i32, ptr %20, align 4, !tbaa !26
  %22 = sub i32 32, %21
  br label %23

23:                                               ; preds = %17, %15
  %24 = phi i32 [ %16, %15 ], [ %22, %17 ]
  store i32 %24, ptr %7, align 4, !tbaa !13
  %25 = load i32, ptr %6, align 4, !tbaa !13
  %26 = load ptr, ptr %4, align 8, !tbaa !4
  %27 = getelementptr inbounds nuw %struct.OpusRangeCoder, ptr %26, i32 0, i32 4
  %28 = load i32, ptr %27, align 8, !tbaa !23
  %29 = add i32 %28, %25
  store i32 %29, ptr %27, align 8, !tbaa !23
  %30 = load i32, ptr %5, align 4, !tbaa !13
  %31 = load i32, ptr %7, align 4, !tbaa !13
  %32 = call i32 @av_zero_extend_c(i32 noundef %30, i32 noundef %31) #10
  %33 = load ptr, ptr %4, align 8, !tbaa !4
  %34 = getelementptr inbounds nuw %struct.OpusRangeCoder, ptr %33, i32 0, i32 1
  %35 = getelementptr inbounds nuw %struct.RawBitsContext, ptr %34, i32 0, i32 2
  %36 = load i32, ptr %35, align 4, !tbaa !26
  %37 = shl i32 %32, %36
  %38 = load ptr, ptr %4, align 8, !tbaa !4
  %39 = getelementptr inbounds nuw %struct.OpusRangeCoder, ptr %38, i32 0, i32 1
  %40 = getelementptr inbounds nuw %struct.RawBitsContext, ptr %39, i32 0, i32 3
  %41 = load i32, ptr %40, align 8, !tbaa !29
  %42 = or i32 %41, %37
  store i32 %42, ptr %40, align 8, !tbaa !29
  %43 = load ptr, ptr %4, align 8, !tbaa !4
  %44 = getelementptr inbounds nuw %struct.OpusRangeCoder, ptr %43, i32 0, i32 1
  %45 = getelementptr inbounds nuw %struct.RawBitsContext, ptr %44, i32 0, i32 2
  %46 = load i32, ptr %45, align 4, !tbaa !26
  %47 = load i32, ptr %7, align 4, !tbaa !13
  %48 = add i32 %46, %47
  %49 = urem i32 %48, 32
  %50 = load ptr, ptr %4, align 8, !tbaa !4
  %51 = getelementptr inbounds nuw %struct.OpusRangeCoder, ptr %50, i32 0, i32 1
  %52 = getelementptr inbounds nuw %struct.RawBitsContext, ptr %51, i32 0, i32 2
  store i32 %49, ptr %52, align 4, !tbaa !26
  %53 = load ptr, ptr %4, align 8, !tbaa !4
  %54 = getelementptr inbounds nuw %struct.OpusRangeCoder, ptr %53, i32 0, i32 1
  %55 = getelementptr inbounds nuw %struct.RawBitsContext, ptr %54, i32 0, i32 2
  %56 = load i32, ptr %55, align 4, !tbaa !26
  %57 = icmp ne i32 %56, 0
  br i1 %57, label %111, label %58

58:                                               ; preds = %23
  %59 = load i32, ptr %6, align 4, !tbaa !13
  %60 = icmp ne i32 %59, 0
  br i1 %60, label %61, label %111

61:                                               ; preds = %58
  %62 = load ptr, ptr %4, align 8, !tbaa !4
  %63 = getelementptr inbounds nuw %struct.OpusRangeCoder, ptr %62, i32 0, i32 1
  %64 = getelementptr inbounds nuw %struct.RawBitsContext, ptr %63, i32 0, i32 3
  %65 = load i32, ptr %64, align 8, !tbaa !29
  %66 = call i32 @av_bswap32(i32 noundef %65) #10
  %67 = load ptr, ptr %4, align 8, !tbaa !4
  %68 = getelementptr inbounds nuw %struct.OpusRangeCoder, ptr %67, i32 0, i32 1
  %69 = getelementptr inbounds nuw %struct.RawBitsContext, ptr %68, i32 0, i32 0
  %70 = load ptr, ptr %69, align 8, !tbaa !27
  store i32 %66, ptr %70, align 1, !tbaa !28
  %71 = load ptr, ptr %4, align 8, !tbaa !4
  %72 = getelementptr inbounds nuw %struct.OpusRangeCoder, ptr %71, i32 0, i32 1
  %73 = getelementptr inbounds nuw %struct.RawBitsContext, ptr %72, i32 0, i32 1
  %74 = load i32, ptr %73, align 8, !tbaa !25
  %75 = add i32 %74, 4
  store i32 %75, ptr %73, align 8, !tbaa !25
  %76 = load ptr, ptr %4, align 8, !tbaa !4
  %77 = getelementptr inbounds nuw %struct.OpusRangeCoder, ptr %76, i32 0, i32 1
  %78 = getelementptr inbounds nuw %struct.RawBitsContext, ptr %77, i32 0, i32 0
  %79 = load ptr, ptr %78, align 8, !tbaa !27
  %80 = getelementptr inbounds i8, ptr %79, i64 -4
  store ptr %80, ptr %78, align 8, !tbaa !27
  %81 = load i32, ptr %6, align 4, !tbaa !13
  %82 = load i32, ptr %7, align 4, !tbaa !13
  %83 = sub i32 %81, %82
  %84 = load ptr, ptr %4, align 8, !tbaa !4
  %85 = getelementptr inbounds nuw %struct.OpusRangeCoder, ptr %84, i32 0, i32 1
  %86 = getelementptr inbounds nuw %struct.RawBitsContext, ptr %85, i32 0, i32 2
  store i32 %83, ptr %86, align 4, !tbaa !26
  %87 = load i32, ptr %5, align 4, !tbaa !13
  %88 = load i32, ptr %7, align 4, !tbaa !13
  %89 = lshr i32 %87, %88
  %90 = load ptr, ptr %4, align 8, !tbaa !4
  %91 = getelementptr inbounds nuw %struct.OpusRangeCoder, ptr %90, i32 0, i32 1
  %92 = getelementptr inbounds nuw %struct.RawBitsContext, ptr %91, i32 0, i32 2
  %93 = load i32, ptr %92, align 4, !tbaa !26
  %94 = call i32 @av_zero_extend_c(i32 noundef %89, i32 noundef %93) #10
  %95 = load ptr, ptr %4, align 8, !tbaa !4
  %96 = getelementptr inbounds nuw %struct.OpusRangeCoder, ptr %95, i32 0, i32 1
  %97 = getelementptr inbounds nuw %struct.RawBitsContext, ptr %96, i32 0, i32 3
  store i32 %94, ptr %97, align 8, !tbaa !29
  br label %98

98:                                               ; preds = %61
  %99 = load ptr, ptr %4, align 8, !tbaa !4
  %100 = getelementptr inbounds nuw %struct.OpusRangeCoder, ptr %99, i32 0, i32 6
  %101 = load ptr, ptr %100, align 8, !tbaa !31
  %102 = load ptr, ptr %4, align 8, !tbaa !4
  %103 = getelementptr inbounds nuw %struct.OpusRangeCoder, ptr %102, i32 0, i32 1
  %104 = getelementptr inbounds nuw %struct.RawBitsContext, ptr %103, i32 0, i32 0
  %105 = load ptr, ptr %104, align 8, !tbaa !27
  %106 = icmp ult ptr %101, %105
  br i1 %106, label %108, label %107

107:                                              ; preds = %98
  call void (ptr, i32, ptr, ...) @av_log(ptr noundef null, i32 noundef 0, ptr noundef @.str, ptr noundef @.str.1, ptr noundef @.str.2, i32 noundef 175)
  call void @abort() #11
  unreachable

108:                                              ; preds = %98
  br label %109

109:                                              ; preds = %108
  br label %110

110:                                              ; preds = %109
  br label %111

111:                                              ; preds = %110, %58, %23
  call void @llvm.lifetime.end.p0(i64 4, ptr %7) #9
  ret void
}