; Function Attrs: nounwind uwtable
define void @ff_opus_rc_put_raw(ptr noundef captures(none) %0, i32 noundef %1, i32 noundef %2) local_unnamed_addr #1 {
  %4 = getelementptr inbounds nuw i8, ptr %0, i64 44
  %5 = load i32, ptr %4, align 4, !tbaa !31
  %6 = sub i32 32, %5
  %. = tail call i32 @llvm.umin.i32(i32 %6, i32 %2)
  %7 = getelementptr inbounds nuw i8, ptr %0, i64 64
  %8 = load i32, ptr %7, align 8, !tbaa !21
  %9 = add i32 %8, %2
  store i32 %9, ptr %7, align 8, !tbaa !21
  %notmask.i29 = shl nsw i32 -1, %.
  %10 = xor i32 %notmask.i29, -1
  %11 = and i32 %1, %10
  %12 = shl i32 %11, %5
  %13 = getelementptr inbounds nuw i8, ptr %0, i64 48
  %14 = load i32, ptr %13, align 8, !tbaa !32
  %15 = or i32 %12, %14
  store i32 %15, ptr %13, align 8, !tbaa !32
  %16 = add i32 %., %5
  %17 = and i32 %16, 31
  store i32 %17, ptr %4, align 4, !tbaa !31
  %18 = icmp eq i32 %17, 0
  %19 = icmp ne i32 %2, 0
  %or.cond = and i1 %19, %18
  br i1 %or.cond, label %20, label %37

20:                                               ; preds = %3
  %21 = getelementptr inbounds nuw i8, ptr %0, i64 32
  %22 = tail call i32 @llvm.bswap.i32(i32 %15)
  %23 = load ptr, ptr %21, align 8, !tbaa !28
  store i32 %22, ptr %23, align 1, !tbaa !22
  %24 = getelementptr inbounds nuw i8, ptr %0, i64 40
  %25 = load i32, ptr %24, align 8, !tbaa !30
  %26 = add i32 %25, 4
  store i32 %26, ptr %24, align 8, !tbaa !30
  %27 = load ptr, ptr %21, align 8, !tbaa !28
  %28 = getelementptr inbounds i8, ptr %27, i64 -4
  store ptr %28, ptr %21, align 8, !tbaa !28
  %29 = sub i32 %2, %.
  store i32 %29, ptr %4, align 4, !tbaa !31
  %30 = lshr i32 %1, %.
  %notmask.i = shl nsw i32 -1, %29
  %31 = xor i32 %notmask.i, -1
  %32 = and i32 %30, %31
  store i32 %32, ptr %13, align 8, !tbaa !32
  %33 = getelementptr inbounds nuw i8, ptr %0, i64 1360
  %34 = load ptr, ptr %33, align 8, !tbaa !26
  %35 = icmp ult ptr %34, %28
  br i1 %35, label %37, label %36

36:                                               ; preds = %20
  tail call void (ptr, i32, ptr, ...) @av_log(ptr noundef null, i32 noundef 0, ptr noundef nonnull @.str, ptr noundef nonnull @.str.1, ptr noundef nonnull @.str.2, i32 noundef 175) #8
  tail call void @abort() #9
  unreachable

37:                                               ; preds = %20, %3
  ret void
}